target datalayout = "e-m:e-p270:32:32-p271:32:32-p272:64:64-i64:64-i128:128-f80:128-n8:16:32:64-S128"
target triple = "x86_64-pc-linux-gnu"

@.str.2 = private unnamed_addr constant [2 x i8] c"p\00", align 1
@.str.3 = private unnamed_addr constant [2 x i8] c"g\00", align 1
@.str.4 = private unnamed_addr constant [2 x i8] c"q\00", align 1

; Function Attrs: nounwind uwtable
define internal ptr @get_dh_from_pg_bn(ptr noundef %0, ptr noundef %1, ptr noundef %2, ptr noundef %3, ptr noundef %4) #0 {
  %6 = alloca ptr, align 8
  %7 = alloca ptr, align 8
  %8 = alloca ptr, align 8
  %9 = alloca ptr, align 8
  %10 = alloca ptr, align 8
  %11 = alloca ptr, align 8
  %12 = alloca ptr, align 8
  %13 = alloca ptr, align 8
  %14 = alloca ptr, align 8
  store ptr %0, ptr %6, align 8, !tbaa !4
  store ptr %1, ptr %7, align 8, !tbaa !9
  store ptr %2, ptr %8, align 8, !tbaa !15
  store ptr %3, ptr %9, align 8, !tbaa !15
  store ptr %4, ptr %10, align 8, !tbaa !15
  call void @llvm.lifetime.start.p0(i64 8, ptr %11) #3
  %15 = load ptr, ptr %6, align 8, !tbaa !4
  %16 = load ptr, ptr %7, align 8, !tbaa !9
  %17 = call ptr @EVP_PKEY_CTX_new_from_name(ptr noundef %15, ptr noundef %16, ptr noundef null)
  store ptr %17, ptr %11, align 8, !tbaa !17
  call void @llvm.lifetime.start.p0(i64 8, ptr %12) #3
  store ptr null, ptr %12, align 8, !tbaa !19
  call void @llvm.lifetime.start.p0(i64 8, ptr %13) #3
  store ptr null, ptr %13, align 8, !tbaa !21
  call void @llvm.lifetime.start.p0(i64 8, ptr %14) #3
  store ptr null, ptr %14, align 8, !tbaa !13
  %18 = load ptr, ptr %11, align 8, !tbaa !17
  %19 = icmp eq ptr %18, null
  br i1 %19, label %24, label %20

20:                                               ; preds = %5
  %21 = load ptr, ptr %11, align 8, !tbaa !17
  %22 = call i32 @EVP_PKEY_fromdata_init(ptr noundef %21)
  %23 = icmp sle i32 %22, 0
  br i1 %23, label %24, label %25

24:                                               ; preds = %20, %5
  br label %59

25:                                               ; preds = %20
  %26 = call ptr @OSSL_PARAM_BLD_new()
  store ptr %26, ptr %12, align 8, !tbaa !19
  %27 = icmp eq ptr %26, null
  br i1 %27, label %46, label %28

28:                                               ; preds = %25
  %29 = load ptr, ptr %12, align 8, !tbaa !19
  %30 = load ptr, ptr %8, align 8, !tbaa !15
  %31 = call i32 @OSSL_PARAM_BLD_push_BN(ptr noundef %29, ptr noundef @.str.2, ptr noundef %30)
  %32 = icmp ne i32 %31, 0
  br i1 %32, label %33, label %46

33:                                               ; preds = %28
  %34 = load ptr, ptr %12, align 8, !tbaa !19
  %35 = load ptr, ptr %9, align 8, !tbaa !15
  %36 = call i32 @OSSL_PARAM_BLD_push_BN(ptr noundef %34, ptr noundef @.str.3, ptr noundef %35)
  %37 = icmp ne i32 %36, 0
  br i1 %37, label %38, label %46

38:                                               ; preds = %33
  %39 = load ptr, ptr %10, align 8, !tbaa !15
  %40 = icmp ne ptr %39, null
  br i1 %40, label %41, label %47

41:                                               ; preds = %38
  %42 = load ptr, ptr %12, align 8, !tbaa !19
  %43 = load ptr, ptr %10, align 8, !tbaa !15
  %44 = call i32 @OSSL_PARAM_BLD_push_BN(ptr noundef %42, ptr noundef @.str.4, ptr noundef %43)
  %45 = icmp ne i32 %44, 0
  br i1 %45, label %47, label %46

46:                                               ; preds = %41, %33, %28, %25
  br label %59

47:                                               ; preds = %41, %38
  %48 = load ptr, ptr %12, align 8, !tbaa !19
  %49 = call ptr @OSSL_PARAM_BLD_to_param(ptr noundef %48)
  store ptr %49, ptr %13, align 8, !tbaa !21
  %50 = load ptr, ptr %13, align 8, !tbaa !21
  %51 = icmp eq ptr %50, null
  br i1 %51, label %57, label %52

52:                                               ; preds = %47
  %53 = load ptr, ptr %11, align 8, !tbaa !17
  %54 = load ptr, ptr %13, align 8, !tbaa !21
  %55 = call i32 @EVP_PKEY_fromdata(ptr noundef %53, ptr noundef %14, i32 noundef 132, ptr noundef %54)
  %56 = icmp sle i32 %55, 0
  br i1 %56, label %57, label %58

57:                                               ; preds = %52, %47
  br label %59

58:                                               ; preds = %52
  br label %59

59:                                               ; preds = %58, %57, %46, %24
  %60 = load ptr, ptr %11, align 8, !tbaa !17
  call void @EVP_PKEY_CTX_free(ptr noundef %60)
  %61 = load ptr, ptr %13, align 8, !tbaa !21
  call void @OSSL_PARAM_free(ptr noundef %61)
  %62 = load ptr, ptr %12, align 8, !tbaa !19
  call void @OSSL_PARAM_BLD_free(ptr noundef %62)
  %63 = load ptr, ptr %14, align 8, !tbaa !13
  call void @llvm.lifetime.end.p0(i64 8, ptr %14) #3
  call void @llvm.lifetime.end.p0(i64 8, ptr %13) #3
  call void @llvm.lifetime.end.p0(i64 8, ptr %12) #3
  call void @llvm.lifetime.end.p0(i64 8, ptr %11) #3
  ret ptr %63
}