; Function Attrs: nounwind uwtable
define internal fastcc ptr @get_dh_from_pg_bn(ptr noundef %0, ptr noundef %1, ptr noundef nonnull %2, ptr noundef nonnull %3, ptr noundef %4) unnamed_addr #0 {
  %6 = alloca ptr, align 8
  %7 = tail call ptr @EVP_PKEY_CTX_new_from_name(ptr noundef %0, ptr noundef %1, ptr noundef null) #3
  call void @llvm.lifetime.start.p0(i64 8, ptr nonnull %6) #3
  store ptr null, ptr %6, align 8, !tbaa !4
  %8 = icmp eq ptr %7, null
  br i1 %8, label %27, label %9

9:                                                ; preds = %5
  %10 = tail call i32 @EVP_PKEY_fromdata_init(ptr noundef nonnull %7) #3
  %11 = icmp slt i32 %10, 1
  br i1 %11, label %27, label %12

12:                                               ; preds = %9
  %13 = tail call ptr @OSSL_PARAM_BLD_new() #3
  %14 = icmp eq ptr %13, null
  br i1 %14, label %27, label %15

15:                                               ; preds = %12
  %16 = tail call i32 @OSSL_PARAM_BLD_push_BN(ptr noundef nonnull %13, ptr noundef nonnull @.str.2, ptr noundef nonnull %2) #3
  %.not = icmp eq i32 %16, 0
  br i1 %.not, label %27, label %17

17:                                               ; preds = %15
  %18 = tail call i32 @OSSL_PARAM_BLD_push_BN(ptr noundef nonnull %13, ptr noundef nonnull @.str.3, ptr noundef nonnull %3) #3
  %.not24 = icmp eq i32 %18, 0
  br i1 %.not24, label %27, label %19

19:                                               ; preds = %17
  %.not25 = icmp eq ptr %4, null
  br i1 %.not25, label %22, label %20

20:                                               ; preds = %19
  %21 = tail call i32 @OSSL_PARAM_BLD_push_BN(ptr noundef nonnull %13, ptr noundef nonnull @.str.4, ptr noundef nonnull %4) #3
  %.not26 = icmp eq i32 %21, 0
  br i1 %.not26, label %27, label %22

22:                                               ; preds = %20, %19
  %23 = tail call ptr @OSSL_PARAM_BLD_to_param(ptr noundef nonnull %13) #3
  %24 = icmp eq ptr %23, null
  br i1 %24, label %27, label %25

25:                                               ; preds = %22
  %26 = call i32 @EVP_PKEY_fromdata(ptr noundef nonnull %7, ptr noundef nonnull %6, i32 noundef 132, ptr noundef nonnull %23) #3
  br label %27

27:                                               ; preds = %25, %22, %12, %15, %17, %20, %5, %9
  %.018 = phi ptr [ null, %5 ], [ null, %9 ], [ null, %12 ], [ %13, %22 ], [ %13, %25 ], [ %13, %20 ], [ %13, %17 ], [ %13, %15 ]
  %.0 = phi ptr [ null, %5 ], [ null, %9 ], [ null, %12 ], [ null, %22 ], [ %23, %25 ], [ null, %20 ], [ null, %17 ], [ null, %15 ]
  call void @EVP_PKEY_CTX_free(ptr noundef %7) #3
  call void @OSSL_PARAM_free(ptr noundef %.0) #3
  call void @OSSL_PARAM_BLD_free(ptr noundef %.018) #3
  %28 = load ptr, ptr %6, align 8, !tbaa !4
  call void @llvm.lifetime.end.p0(i64 8, ptr nonnull %6) #3
  ret ptr %28
}